(dp0
S'conv_4_1/convolution_1/pointwise/pointwise_weights:0'
p1
(lp2
I1
aI1
aI64
aI128
asVconv_3_3/convolution_2/BatchNorm/moving_mean:0
p3
(lp4
I64
asVconv_3_2/convolution_2/BatchNorm/moving_variance:0
p5
(lp6
I64
asVconv_3_3/convolution_2/depthwise/BatchNorm/moving_mean:0
p7
(lp8
I64
asVconv_3_1/convolution_2/depthwise/BatchNorm/gamma:0
p9
(lp10
I62
asVconv_3_1/BatchNorm/moving_variance:0
p11
(lp12
I32
asS'conv_4_1/convolution_2/depthwise/bias:0'
p13
(lp14
I128
asVconv_4_1/convolution_2/BatchNorm/moving_mean:0
p15
(lp16
I128
asVconv_4_1/convolution_2/depthwise/BatchNorm/gamma:0
p17
(lp18
I128
asS'conv_4_1/convolution_2/pointwise/bias:0'
p19
(lp20
I128
asS'conv_3_2/convolution_1/depthwise/bias:0'
p21
(lp22
I64
asVconv_4_1/convolution_2/BatchNorm/gamma:0
p23
(lp24
I128
asVconv_4_2/BatchNorm/beta:0
p25
(lp26
I128
asVconv_4_3/BatchNorm/gamma:0
p27
(lp28
I128
asS'conv_4_3/convolution_2/depthwise/depthwise_weights:0'
p29
(lp30
I3
aI3
aI128
aI1
asS'conv_4_1/convolution_2/pointwise/pointwise_weights:0'
p31
(lp32
I1
aI1
aI128
aI128
asS'conv_3_3/convolution_1/depthwise/bias:0'
p33
(lp34
I64
asS'conv_4_1/convolution_1/depthwise/depthwise_weights:0'
p35
(lp36
I3
aI3
aI64
aI1
asS'conv_3_1/convolution_2/depthwise/depthwise_weights:0'
p37
(lp38
I3
aI3
aI62
aI1
asVconv_4_3/convolution_1/depthwise/BatchNorm/beta:0
p39
(lp40
I128
asVconv_4_1/convolution_1/depthwise/BatchNorm/moving_mean:0
p41
(lp42
I64
asS'conv_3_3/convolution_1/pointwise/pointwise_weights:0'
p43
(lp44
I1
aI1
aI64
aI64
asS'conv_3_1/convolution_1/depthwise/depthwise_weights:0'
p45
(lp46
I3
aI3
aI32
aI1
asVconv_3_1/convolution_1/depthwise/BatchNorm/moving_variance:0
p47
(lp48
I32
asVconv_4_2/convolution_1/depthwise/BatchNorm/beta:0
p49
(lp50
I128
asVfc/BatchNorm/moving_variance:0
p51
(lp52
I128
asVconv_3_1/BatchNorm/beta:0
p53
(lp54
I32
asVconv_3_2/convolution_2/depthwise/BatchNorm/beta:0
p55
(lp56
I64
asVconv_3_1/convolution_2/depthwise/BatchNorm/moving_variance:0
p57
(lp58
I62
asVconv_3_3/convolution_2/depthwise/BatchNorm/beta:0
p59
(lp60
I64
asVconv_3_2/convolution_2/BatchNorm/beta:0
p61
(lp62
I64
asVconv_4_1/convolution_2/depthwise/BatchNorm/moving_variance:0
p63
(lp64
I128
asS'conv_3_3/convolution_2/depthwise/depthwise_weights:0'
p65
(lp66
I3
aI3
aI64
aI1
asVconv_3_1/convolution_2/BatchNorm/beta:0
p67
(lp68
I62
asS'conv_3_1/convolution_2/pointwise/bias:0'
p69
(lp70
I64
asVconv_3_1/convolution_2/BatchNorm/moving_mean:0
p71
(lp72
I62
asVconv_3_3/BatchNorm/gamma:0
p73
(lp74
I64
asVconv_4_1/convolution_2/BatchNorm/moving_variance:0
p75
(lp76
I128
asVconv_4_3/convolution_2/BatchNorm/beta:0
p77
(lp78
I128
asS'conv_4_3/convolution_1/depthwise/depthwise_weights:0'
p79
(lp80
I3
aI3
aI128
aI1
asVfc/BatchNorm/gamma:0
p81
(lp82
I128
asS'conv_4_3/convolution_2/pointwise/bias:0'
p83
(lp84
I128
asVconv_4_3/BatchNorm/beta:0
p85
(lp86
I128
asS'conv_3_1/convolution_1/pointwise/bias:0'
p87
(lp88
I62
asVconv_3_2/convolution_2/depthwise/BatchNorm/gamma:0
p89
(lp90
I64
asS'conv_4_1/convolution_1/depthwise/bias:0'
p91
(lp92
I64
asVconv_3_3/convolution_1/depthwise/BatchNorm/moving_mean:0
p93
(lp94
I64
asVconv_4_1/convolution_1/depthwise/BatchNorm/beta:0
p95
(lp96
I64
asVconv_4_3/convolution_2/BatchNorm/gamma:0
p97
(lp98
I128
asVconv_3_1/convolution_2/BatchNorm/moving_variance:0
p99
(lp100
I62
asVconv_3_2/convolution_2/BatchNorm/gamma:0
p101
(lp102
I64
asS'conv_3_2/convolution_1/pointwise/bias:0'
p103
(lp104
I64
asVconv_4_2/convolution_2/depthwise/BatchNorm/beta:0
p105
(lp106
I128
asS'conv_3_3/convolution_2/pointwise/bias:0'
p107
(lp108
I64
asVconv_3_3/convolution_1/depthwise/BatchNorm/moving_variance:0
p109
(lp110
I64
asS'output/fc_weights:0'
p111
(lp112
I128
aI10
asS'conv_4_3/convolution_2/pointwise/pointwise_weights:0'
p113
(lp114
I1
aI1
aI128
aI128
asS'conv_3_3/convolution_2/pointwise/pointwise_weights:0'
p115
(lp116
I1
aI1
aI64
aI64
asVconv_3_1/convolution_2/BatchNorm/gamma:0
p117
(lp118
I62
asVconv_3_2/convolution_1/depthwise/BatchNorm/moving_mean:0
p119
(lp120
I64
asS'conv_4_2/convolution_1/depthwise/depthwise_weights:0'
p121
(lp122
I3
aI3
aI128
aI1
asS'conv_3_3/convolution_2/depthwise/bias:0'
p123
(lp124
I64
asS'conv_3_1/convolution_1/pointwise/pointwise_weights:0'
p125
(lp126
I1
aI1
aI32
aI62
asVconv_3_1/convolution_1/depthwise/BatchNorm/beta:0
p127
(lp128
I32
asVconv_3_3/convolution_2/BatchNorm/moving_variance:0
p129
(lp130
I64
asS'conv_4_2/convolution_2/depthwise/depthwise_weights:0'
p131
(lp132
I3
aI3
aI128
aI1
asS'conv_3_2/convolution_2/depthwise/depthwise_weights:0'
p133
(lp134
I3
aI3
aI64
aI1
asVconv_4_1/convolution_2/BatchNorm/beta:0
p135
(lp136
I128
asVconv_3_2/convolution_2/depthwise/BatchNorm/moving_variance:0
p137
(lp138
I64
asVconv_3_3/convolution_1/depthwise/BatchNorm/beta:0
p139
(lp140
I64
asS'conv_4_2/convolution_2/pointwise/bias:0'
p141
(lp142
I128
asVconv_4_2/BatchNorm/moving_variance:0
p143
(lp144
I128
asVconv_4_2/convolution_2/BatchNorm/gamma:0
p145
(lp146
I128
asVconv_4_3/convolution_2/BatchNorm/moving_mean:0
p147
(lp148
I128
asS'output/bias:0'
p149
(lp150
I10
asVconv_4_1/BatchNorm/gamma:0
p151
(lp152
I64
asVconv_3_3/convolution_2/BatchNorm/beta:0
p153
(lp154
I64
asS'conv_3_1/convolution_1/depthwise/bias:0'
p155
(lp156
I32
asS'conv_4_2/convolution_1/pointwise/bias:0'
p157
(lp158
I128
asS'conv_3_1/convolution_2/depthwise/bias:0'
p159
(lp160
I62
asVconv_3_2/BatchNorm/moving_mean:0
p161
(lp162
I64
asVconv_4_1/convolution_1/depthwise/BatchNorm/moving_variance:0
p163
(lp164
I64
asVconv_3_2/convolution_1/depthwise/BatchNorm/beta:0
p165
(lp166
I64
asS'conv_3_3/convolution_1/pointwise/bias:0'
p167
(lp168
I64
asVconv_4_2/convolution_1/depthwise/BatchNorm/gamma:0
p169
(lp170
I128
asVconv_4_1/convolution_1/depthwise/BatchNorm/gamma:0
p171
(lp172
I64
asS'conv_4_1/convolution_1/pointwise/bias:0'
p173
(lp174
I128
asVconv_3_1/convolution_2/depthwise/BatchNorm/beta:0
p175
(lp176
I62
asVconv_4_1/convolution_2/depthwise/BatchNorm/beta:0
p177
(lp178
I128
asVconv_3_2/BatchNorm/beta:0
p179
(lp180
I64
asVconv_4_1/convolution_2/depthwise/BatchNorm/moving_mean:0
p181
(lp182
I128
asVconv_3_3/convolution_2/depthwise/BatchNorm/gamma:0
p183
(lp184
I64
asVfc/BatchNorm/beta:0
p185
(lp186
I128
asVconv_4_2/convolution_2/depthwise/BatchNorm/gamma:0
p187
(lp188
I128
asS'conv_3_3/convolution_1/depthwise/depthwise_weights:0'
p189
(lp190
I3
aI3
aI64
aI1
asVconv_4_3/convolution_1/depthwise/BatchNorm/moving_mean:0
p191
(lp192
I128
asS'conv_4_2/convolution_1/pointwise/pointwise_weights:0'
p193
(lp194
I1
aI1
aI128
aI128
asS'conv_4_3/convolution_1/pointwise/pointwise_weights:0'
p195
(lp196
I1
aI1
aI128
aI128
asVconv_4_2/convolution_1/depthwise/BatchNorm/moving_mean:0
p197
(lp198
I128
asVconv_4_2/convolution_2/depthwise/BatchNorm/moving_mean:0
p199
(lp200
I128
asS'conv_4_1/convolution_2/depthwise/depthwise_weights:0'
p201
(lp202
I3
aI3
aI128
aI1
asVconv_3_2/BatchNorm/moving_variance:0
p203
(lp204
I64
asVconv_3_1/BatchNorm/gamma:0
p205
(lp206
I32
asVconv_4_2/convolution_2/BatchNorm/beta:0
p207
(lp208
I128
asVconv_4_2/BatchNorm/moving_mean:0
p209
(lp210
I128
asVconv_3_3/BatchNorm/moving_variance:0
p211
(lp212
I64
asVconv_3_3/convolution_2/depthwise/BatchNorm/moving_variance:0
p213
(lp214
I64
asVconv_4_3/BatchNorm/moving_variance:0
p215
(lp216
I128
asVconv_4_3/convolution_2/depthwise/BatchNorm/moving_mean:0
p217
(lp218
I128
asS'conv_3_2/convolution_1/pointwise/pointwise_weights:0'
p219
(lp220
I1
aI1
aI64
aI64
asS'conv_4_3/convolution_1/pointwise/bias:0'
p221
(lp222
I128
asVconv_4_3/BatchNorm/moving_mean:0
p223
(lp224
I128
asVconv_4_3/convolution_2/depthwise/BatchNorm/gamma:0
p225
(lp226
I128
asS'conv_4_2/convolution_1/depthwise/bias:0'
p227
(lp228
I128
asS'conv_1_1/bias:0'
p229
(lp230
I32
asS'conv_1_1/conv_weights:0'
p231
(lp232
I3
aI3
aI3
aI32
asS'conv_4_3/convolution_2/depthwise/bias:0'
p233
(lp234
I128
asS'conv_3_2/convolution_2/depthwise/bias:0'
p235
(lp236
I64
asS'conv_4_2/convolution_2/depthwise/bias:0'
p237
(lp238
I128
asS'conv_3_2/convolution_2/pointwise/bias:0'
p239
(lp240
I64
asVconv_3_2/convolution_1/depthwise/BatchNorm/moving_variance:0
p241
(lp242
I64
asVconv_4_1/BatchNorm/moving_mean:0
p243
(lp244
I64
asVconv_3_3/BatchNorm/moving_mean:0
p245
(lp246
I64
asVconv_3_3/convolution_1/depthwise/BatchNorm/gamma:0
p247
(lp248
I64
asVconv_4_1/BatchNorm/moving_variance:0
p249
(lp250
I64
asVconv_3_1/BatchNorm/moving_mean:0
p251
(lp252
I32
asS'conv_3_2/convolution_2/pointwise/pointwise_weights:0'
p253
(lp254
I1
aI1
aI64
aI64
asVconv_3_1/convolution_1/depthwise/BatchNorm/gamma:0
p255
(lp256
I32
asS'conv_4_2/convolution_2/pointwise/pointwise_weights:0'
p257
(lp258
I1
aI1
aI128
aI128
asVconv_3_2/convolution_1/depthwise/BatchNorm/gamma:0
p259
(lp260
I64
asS'conv_3_2/convolution_1/depthwise/depthwise_weights:0'
p261
(lp262
I3
aI3
aI64
aI1
asVconv_3_2/convolution_2/BatchNorm/moving_mean:0
p263
(lp264
I64
asVfc/BatchNorm/moving_mean:0
p265
(lp266
I128
asVconv_4_1/BatchNorm/beta:0
p267
(lp268
I64
asVconv_3_2/convolution_2/depthwise/BatchNorm/moving_mean:0
p269
(lp270
I64
asS'conv_3_1/convolution_2/pointwise/pointwise_weights:0'
p271
(lp272
I1
aI1
aI62
aI64
asVconv_3_3/BatchNorm/beta:0
p273
(lp274
I64
asVconv_3_3/convolution_2/BatchNorm/gamma:0
p275
(lp276
I64
asVconv_4_3/convolution_1/depthwise/BatchNorm/moving_variance:0
p277
(lp278
I128
asVconv_4_2/convolution_1/depthwise/BatchNorm/moving_variance:0
p279
(lp280
I128
asVconv_4_3/convolution_2/depthwise/BatchNorm/moving_variance:0
p281
(lp282
I128
asS'conv_4_3/convolution_1/depthwise/bias:0'
p283
(lp284
I128
asVconv_4_2/convolution_2/BatchNorm/moving_variance:0
p285
(lp286
I128
asVconv_3_1/convolution_1/depthwise/BatchNorm/moving_mean:0
p287
(lp288
I32
asVconv_3_1/convolution_2/depthwise/BatchNorm/moving_mean:0
p289
(lp290
I62
asVconv_4_2/convolution_2/depthwise/BatchNorm/moving_variance:0
p291
(lp292
I128
asVconv_4_3/convolution_2/BatchNorm/moving_variance:0
p293
(lp294
I128
asVconv_4_2/convolution_2/BatchNorm/moving_mean:0
p295
(lp296
I128
asVconv_4_2/BatchNorm/gamma:0
p297
(lp298
I128
asVconv_4_3/convolution_1/depthwise/BatchNorm/gamma:0
p299
(lp300
I128
asVconv_4_3/convolution_2/depthwise/BatchNorm/beta:0
p301
(lp302
I128
asVconv_3_2/BatchNorm/gamma:0
p303
(lp304
I64
as.